; Function Attrs: mustprogress nofree norecurse nosync nounwind willreturn memory(read, inaccessiblemem: none) uwtable
define noundef i32 @_ZNK7testing8internal12UnitTestImpl21reportable_test_countEv(ptr noundef nonnull readonly align 8 captures(none) dereferenceable(497) %0) local_unnamed_addr #11 align 2 {
  %2 = getelementptr inbounds nuw i8, ptr %0, i64 184
  %3 = getelementptr inbounds nuw i8, ptr %0, i64 192
  %4 = load ptr, ptr %3, align 8, !tbaa !243
  %5 = load ptr, ptr %2, align 8, !tbaa !244
  %.not15.i = icmp eq ptr %4, %5
  br i1 %.not15.i, label %_ZN7testing8internalL19SumOverTestCaseListERKSt6vectorIPNS_8TestCaseESaIS3_EEMS2_KFivE.exit, label %.lr.ph.split.us.i.preheader

.lr.ph.split.us.i.preheader:                      ; preds = %1
  %6 = ptrtoint ptr %4 to i64
  %7 = ptrtoint ptr %5 to i64
  %8 = sub i64 %6, %7
  %9 = ashr exact i64 %8, 3
  %umax = tail call i64 @llvm.umax.i64(i64 %9, i64 1)
  br label %.lr.ph.split.us.i

.lr.ph.split.us.i:                                ; preds = %.lr.ph.split.us.i.preheader, %_ZNK7testing8TestCase21reportable_test_countEv.exit
  %.014.us.i = phi i64 [ %27, %_ZNK7testing8TestCase21reportable_test_countEv.exit ], [ 0, %.lr.ph.split.us.i.preheader ]
  %.01213.us.i = phi i32 [ %26, %_ZNK7testing8TestCase21reportable_test_countEv.exit ], [ 0, %.lr.ph.split.us.i.preheader ]
  %10 = getelementptr inbounds nuw ptr, ptr %5, i64 %.014.us.i
  %11 = load ptr, ptr %10, align 8, !tbaa !225
  %12 = getelementptr inbounds nuw i8, ptr %11, i64 48
  %13 = load ptr, ptr %12, align 8, !tbaa !234
  %14 = getelementptr inbounds nuw i8, ptr %11, i64 56
  %15 = load ptr, ptr %14, align 8, !tbaa !234
  %.not7.i.i = icmp eq ptr %13, %15
  br i1 %.not7.i.i, label %_ZNK7testing8TestCase21reportable_test_countEv.exit, label %.lr.ph.i.i

.lr.ph.i.i:                                       ; preds = %.lr.ph.split.us.i, %.lr.ph.i.i
  %.09.i.i = phi i32 [ %spec.select.i.i, %.lr.ph.i.i ], [ 0, %.lr.ph.split.us.i ]
  %.sroa.04.08.i.i = phi ptr [ %25, %.lr.ph.i.i ], [ %13, %.lr.ph.split.us.i ]
  %16 = load ptr, ptr %.sroa.04.08.i.i, align 8, !tbaa !235
  %17 = getelementptr inbounds nuw i8, ptr %16, i64 130
  %18 = load i8, ptr %17, align 2, !tbaa !246, !range !68, !noundef !69
  %19 = trunc nuw i8 %18 to i1
  %20 = getelementptr inbounds nuw i8, ptr %16, i64 131
  %21 = load i8, ptr %20, align 1, !range !68
  %22 = xor i8 %21, 1
  %23 = zext nneg i8 %22 to i32
  %24 = select i1 %19, i32 %23, i32 0
  %spec.select.i.i = add nuw nsw i32 %24, %.09.i.i
  %25 = getelementptr inbounds nuw i8, ptr %.sroa.04.08.i.i, i64 8
  %.not.i.i = icmp eq ptr %25, %15
  br i1 %.not.i.i, label %_ZNK7testing8TestCase21reportable_test_countEv.exit, label %.lr.ph.i.i, !llvm.loop !241

_ZNK7testing8TestCase21reportable_test_countEv.exit: ; preds = %.lr.ph.i.i, %.lr.ph.split.us.i
  %.0.lcssa.i.i = phi i32 [ 0, %.lr.ph.split.us.i ], [ %spec.select.i.i, %.lr.ph.i.i ]
  %26 = add nsw i32 %.0.lcssa.i.i, %.01213.us.i
  %27 = add nuw i64 %.014.us.i, 1
  %exitcond.not = icmp eq i64 %27, %umax
  br i1 %exitcond.not, label %_ZN7testing8internalL19SumOverTestCaseListERKSt6vectorIPNS_8TestCaseESaIS3_EEMS2_KFivE.exit, label %.lr.ph.split.us.i, !llvm.loop !245

_ZN7testing8internalL19SumOverTestCaseListERKSt6vectorIPNS_8TestCaseESaIS3_EEMS2_KFivE.exit: ; preds = %_ZNK7testing8TestCase21reportable_test_countEv.exit, %1
  %.012.lcssa.i = phi i32 [ 0, %1 ], [ %26, %_ZNK7testing8TestCase21reportable_test_countEv.exit ]
  ret i32 %.012.lcssa.i
}